; Function Attrs: mustprogress nofree norecurse nosync nounwind willreturn memory(argmem: readwrite) uwtable
define void @_ZN18OpenImageIO_v2_6_09ImageSpecC2ENS_8TypeDescE(ptr nocapture noundef nonnull writeonly align 8 dereferenceable(160) %this, ptr nocapture noundef readonly %format) unnamed_addr #9 align 2 personality ptr @__gxx_personality_v0 {
entry:
  %depth = getelementptr inbounds i8, ptr %this, i64 20
  tail call void @llvm.memset.p0.i64(ptr noundef nonnull align 8 dereferenceable(20) %this, i8 0, i64 20, i1 false)
  store i32 1, ptr %depth, align 4
  %full_x = getelementptr inbounds i8, ptr %this, i64 24
  %tile_depth = getelementptr inbounds i8, ptr %this, i64 56
  tail call void @llvm.memset.p0.i64(ptr noundef nonnull align 8 dereferenceable(32) %full_x, i8 0, i64 32, i1 false)
  store i32 1, ptr %tile_depth, align 8
  %nchannels = getelementptr inbounds i8, ptr %this, i64 60
  store i32 0, ptr %nchannels, align 4
  %format2 = getelementptr inbounds i8, ptr %this, i64 64
  %0 = load i8, ptr %format, align 4
  store i8 %0, ptr %format2, align 8
  %aggregate.i = getelementptr inbounds i8, ptr %this, i64 65
  %aggregate3.i = getelementptr inbounds i8, ptr %format, i64 1
  %1 = load i8, ptr %aggregate3.i, align 1
  store i8 %1, ptr %aggregate.i, align 1
  %vecsemantics.i = getelementptr inbounds i8, ptr %this, i64 66
  %vecsemantics4.i = getelementptr inbounds i8, ptr %format, i64 2
  %2 = load i8, ptr %vecsemantics4.i, align 2
  store i8 %2, ptr %vecsemantics.i, align 2
  %reserved.i = getelementptr inbounds i8, ptr %this, i64 67
  store i8 0, ptr %reserved.i, align 1
  %arraylen.i = getelementptr inbounds i8, ptr %this, i64 68
  %arraylen5.i = getelementptr inbounds i8, ptr %format, i64 4
  %3 = load i32, ptr %arraylen5.i, align 4
  store i32 %3, ptr %arraylen.i, align 4
  %channelformats = getelementptr inbounds i8, ptr %this, i64 72
  %alpha_channel = getelementptr inbounds i8, ptr %this, i64 120
  tail call void @llvm.memset.p0.i64(ptr noundef nonnull align 8 dereferenceable(48) %channelformats, i8 0, i64 48, i1 false)
  store i32 -1, ptr %alpha_channel, align 8
  %z_channel = getelementptr inbounds i8, ptr %this, i64 124
  store i32 -1, ptr %z_channel, align 4
  %deep = getelementptr inbounds i8, ptr %this, i64 128
  store i8 0, ptr %deep, align 8
  %extra_attribs = getelementptr inbounds i8, ptr %this, i64 136
  tail call void @llvm.memset.p0.i64(ptr noundef nonnull align 8 dereferenceable(24) %extra_attribs, i8 0, i64 24, i1 false)
  ret void
}